; Function Attrs: mustprogress nounwind uwtable
define dso_local void @_ZN4node9inspector9TcpHolderC2ESt10unique_ptrINS0_15InspectorSocket8DelegateESt14default_deleteIS4_EE(ptr noundef nonnull align 8 dereferenceable(288) %this, ptr nocapture noundef %delegate) unnamed_addr #0 align 2 {
entry:
  tail call void @llvm.memset.p0.i64(ptr noundef nonnull align 8 dereferenceable(248) %this, i8 0, i64 248, i1 false)
  %delegate_ = getelementptr inbounds i8, ptr %this, i64 248
  %0 = load i64, ptr %delegate, align 8
  store i64 %0, ptr %delegate_, align 8
  store ptr null, ptr %delegate, align 8
  %handler_ = getelementptr inbounds i8, ptr %this, i64 256
  store ptr null, ptr %handler_, align 8
  %buffer = getelementptr inbounds i8, ptr %this, i64 264
  tail call void @_ZNSaIcEC2Ev(ptr noundef nonnull align 1 dereferenceable(1) %buffer) #19
  tail call void @llvm.memset.p0.i64(ptr noundef nonnull align 8 dereferenceable(24) %buffer, i8 0, i64 24, i1 false)
  ret void
}